target datalayout = "e-m:e-p270:32:32-p271:32:32-p272:64:64-i64:64-i128:128-f80:128-n8:16:32:64-S128"
target triple = "x86_64-pc-linux-gnu"

%struct._packet_info = type { ptr, ptr, i32, i32, %struct.nstime_t, %struct.nstime_t, %struct.nstime_t, i8, ptr, ptr, ptr, ptr, %struct._address, %struct._address, %struct._address, %struct._address, %struct._address, %struct._address, i32, ptr, i8, [3 x i8], %struct.anon, i32, i32, i32, i32, ptr, i8, ptr, ptr, i16, i16, i32, i32, i16, i32, i32, ptr, ptr, ptr, i8, i8, i16, i16, i16, i32, i16, i16, ptr, ptr, ptr, ptr, ptr, i32, i32 }
%struct.nstime_t = type { i64, i32 }
%struct._address = type { i32, i32, ptr, ptr }
%struct.anon = type { i8, [3 x i8] }

@hf_um_voice_type = internal global i32 0, align 4
@sub_handles = internal global [31 x ptr] zeroinitializer, align 16
@.str.370 = private unnamed_addr constant [34 x i8] c"GSM CS User Plane (Voice/CSD): %s\00", align 1
@.str.371 = private unnamed_addr constant [11 x i8] c"Unknown %d\00", align 1

; Function Attrs: null_pointer_is_valid sspstrong uwtable
define internal void @dissect_um_voice(ptr noundef %0, ptr noundef %1, ptr noundef %2) #0 {
  %4 = alloca ptr, align 8
  %5 = alloca ptr, align 8
  %6 = alloca ptr, align 8
  %7 = alloca ptr, align 8
  %8 = alloca i8, align 1
  store ptr %0, ptr %4, align 8
  store ptr %1, ptr %5, align 8
  store ptr %2, ptr %6, align 8
  call void @llvm.lifetime.start.p0(i64 8, ptr %7) #10
  call void @llvm.lifetime.start.p0(i64 1, ptr %8) #10
  %9 = load ptr, ptr %4, align 8
  %10 = call zeroext i8 @tvb_get_uint8(ptr noundef %9, i32 noundef 0)
  store i8 %10, ptr %8, align 1
  %11 = load ptr, ptr %5, align 8
  %12 = getelementptr inbounds nuw %struct._packet_info, ptr %11, i32 0, i32 1
  %13 = load ptr, ptr %12, align 8
  %14 = load i8, ptr %8, align 1
  %15 = zext i8 %14 to i32
  %16 = call ptr @val_to_str(i32 noundef %15, ptr noundef @gsmtap_um_voice_types, ptr noundef @.str.371)
  call void (ptr, i32, ptr, ...) @col_add_fstr(ptr noundef %13, i32 noundef 25, ptr noundef @.str.370, ptr noundef %16)
  %17 = load ptr, ptr %6, align 8
  %18 = load i32, ptr @hf_um_voice_type, align 4
  %19 = load ptr, ptr %4, align 8
  %20 = call ptr @proto_tree_add_item(ptr noundef %17, i32 noundef %18, ptr noundef %19, i32 noundef 0, i32 noundef 1, i32 noundef 0)
  %21 = load ptr, ptr %4, align 8
  %22 = load ptr, ptr %4, align 8
  %23 = call i32 @tvb_reported_length(ptr noundef %22)
  %24 = sub i32 %23, 1
  %25 = call ptr @tvb_new_subset_length(ptr noundef %21, i32 noundef 1, i32 noundef %24)
  store ptr %25, ptr %7, align 8
  %26 = load ptr, ptr @sub_handles, align 16
  %27 = load ptr, ptr %7, align 8
  %28 = load ptr, ptr %5, align 8
  %29 = load ptr, ptr %6, align 8
  %30 = call i32 @call_dissector(ptr noundef %26, ptr noundef %27, ptr noundef %28, ptr noundef %29)
  call void @llvm.lifetime.end.p0(i64 1, ptr %8) #10
  call void @llvm.lifetime.end.p0(i64 8, ptr %7) #10
  ret void
}