; Function Attrs: null_pointer_is_valid sspstrong uwtable
define internal fastcc void @dissect_um_voice(ptr noundef %0, ptr noundef %1, ptr noundef %2) unnamed_addr #0 {
  %4 = tail call zeroext i8 @tvb_get_uint8(ptr noundef %0, i32 noundef 0)
  %5 = getelementptr inbounds nuw i8, ptr %1, i64 8
  %6 = load ptr, ptr %5, align 8
  %7 = zext i8 %4 to i32
  %8 = tail call ptr @val_to_str(i32 noundef %7, ptr noundef nonnull @gsmtap_um_voice_types, ptr noundef nonnull @.str.371)
  tail call void (ptr, i32, ptr, ...) @col_add_fstr(ptr noundef %6, i32 noundef 25, ptr noundef nonnull @.str.370, ptr noundef %8)
  %9 = load i32, ptr @hf_um_voice_type, align 4
  %10 = tail call ptr @proto_tree_add_item(ptr noundef %2, i32 noundef %9, ptr noundef %0, i32 noundef 0, i32 noundef 1, i32 noundef 0)
  %11 = tail call i32 @tvb_reported_length(ptr noundef %0)
  %12 = add i32 %11, -1
  %13 = tail call ptr @tvb_new_subset_length(ptr noundef %0, i32 noundef 1, i32 noundef %12)
  %14 = load ptr, ptr @sub_handles, align 16
  %15 = tail call i32 @call_dissector(ptr noundef %14, ptr noundef %13, ptr noundef %1, ptr noundef %2)
  ret void
}